; Function Attrs: mustprogress nounwind uwtable
define noundef ptr @_ZN7glslang13TIntermediate10addForLoopEP11TIntermNodeS2_PNS_12TIntermTypedES4_bRKNS_10TSourceLocERPNS_11TIntermLoopE(ptr nocapture noundef nonnull readonly align 8 dereferenceable(2024) %0, ptr noundef %1, ptr noundef %2, ptr noundef %3, ptr noundef %4, i1 noundef zeroext %5, ptr noundef nonnull align 8 dereferenceable(24) %6, ptr nocapture noundef nonnull align 8 dereferenceable(8) %7) local_unnamed_addr #0 align 2 {
  %9 = tail call noundef nonnull align 8 dereferenceable(96) ptr @_ZN7glslang22GetThreadPoolAllocatorEv() #17
  %10 = tail call noundef ptr @_ZN7glslang14TPoolAllocator8allocateEm(ptr noundef nonnull align 8 dereferenceable(96) %9, i64 noundef 88) #17
  %11 = zext i1 %5 to i8
  %12 = getelementptr inbounds i8, ptr %10, i64 8
  tail call void @llvm.memset.p0.i64(ptr noundef nonnull align 8 dereferenceable(20) %12, i8 0, i64 20, i1 false)
  store ptr getelementptr inbounds inrange(-16, 232) (i8, ptr @_ZTVN7glslang11TIntermLoopE, i64 16), ptr %10, align 8
  %13 = getelementptr inbounds i8, ptr %10, i64 32
  store ptr %1, ptr %13, align 8
  %14 = getelementptr inbounds i8, ptr %10, i64 40
  store ptr %3, ptr %14, align 8
  %15 = getelementptr inbounds i8, ptr %10, i64 48
  store ptr %4, ptr %15, align 8
  %16 = getelementptr inbounds i8, ptr %10, i64 56
  store i8 %11, ptr %16, align 8
  %17 = getelementptr inbounds i8, ptr %10, i64 57
  store i8 0, ptr %17, align 1
  %18 = getelementptr inbounds i8, ptr %10, i64 58
  store i8 0, ptr %18, align 2
  %19 = getelementptr inbounds i8, ptr %10, i64 60
  store <4 x i32> <i32 0, i32 0, i32 -1, i32 1>, ptr %19, align 4
  %20 = getelementptr inbounds i8, ptr %10, i64 76
  store i32 0, ptr %20, align 4
  %21 = getelementptr inbounds i8, ptr %10, i64 80
  store i32 0, ptr %21, align 8
  store ptr %10, ptr %7, align 8
  %22 = load ptr, ptr %10, align 8
  %23 = getelementptr inbounds i8, ptr %22, i64 8
  %24 = load ptr, ptr %23, align 8
  tail call void %24(ptr noundef nonnull align 8 dereferenceable(32) %10, ptr noundef nonnull align 8 dereferenceable(24) %6) #17
  %25 = icmp eq ptr %2, null
  br i1 %25, label %.split.thread, label %26

26:                                               ; preds = %8
  %27 = load ptr, ptr %2, align 8
  %28 = getelementptr inbounds i8, ptr %27, i64 48
  %29 = load ptr, ptr %28, align 8
  %30 = tail call noundef ptr %29(ptr noundef nonnull align 8 dereferenceable(32) %2) #17
  %31 = icmp eq ptr %30, null
  br i1 %31, label %.split20, label %33

.split20:                                         ; preds = %26
  %32 = tail call noundef ptr @_ZN7glslang13TIntermediate13makeAggregateEP11TIntermNodeRKNS_10TSourceLocE(ptr nonnull align 8 poison, ptr noundef nonnull %2, ptr noundef nonnull align 8 dereferenceable(24) %6)
  br label %.split

33:                                               ; preds = %26
  %34 = load ptr, ptr %2, align 8
  %35 = getelementptr inbounds i8, ptr %34, i64 48
  %36 = load ptr, ptr %35, align 8
  %37 = tail call noundef ptr %36(ptr noundef nonnull align 8 dereferenceable(32) %2) #17
  br label %.split

.split:                                           ; preds = %.split20, %33
  %38 = phi ptr [ %37, %33 ], [ %32, %.split20 ]
  %.not = icmp eq ptr %38, null
  br i1 %.not, label %.split.thread, label %39

39:                                               ; preds = %.split
  %40 = getelementptr inbounds i8, ptr %38, i64 184
  %41 = load i32, ptr %40, align 8
  %.off = add i32 %41, -1
  %switch = icmp ult i32 %.off, 2
  br i1 %switch, label %42, label %.split.thread

42:                                               ; preds = %39
  store i32 0, ptr %40, align 8
  br label %.split.thread

.split.thread:                                    ; preds = %39, %8, %42, %.split
  %43 = phi ptr [ %38, %42 ], [ null, %.split ], [ null, %8 ], [ %38, %39 ]
  %44 = load ptr, ptr %7, align 8
  %45 = tail call noundef ptr @_ZN7glslang13TIntermediate13growAggregateEP11TIntermNodeS2_(ptr nonnull align 8 poison, ptr noundef %43, ptr noundef %44)
  %46 = getelementptr inbounds i8, ptr %0, i64 624
  %47 = load i8, ptr %46, align 8
  %48 = trunc i8 %47 to i1
  %49 = select i1 %48, i32 2, i32 1
  %50 = load ptr, ptr %45, align 8
  %51 = getelementptr inbounds i8, ptr %50, i64 392
  %52 = load ptr, ptr %51, align 8
  tail call void %52(ptr noundef nonnull align 8 dereferenceable(364) %45, i32 noundef %49) #17
  ret ptr %45
}